; Function Attrs: nounwind uwtable
define void @ssl3_free_digest_list(ptr noundef captures(none) %0) local_unnamed_addr #0 {
  %2 = getelementptr inbounds nuw i8, ptr %0, i64 424
  %3 = load ptr, ptr %2, align 8, !tbaa !100
  %4 = tail call i32 @BIO_free(ptr noundef %3) #8
  store ptr null, ptr %2, align 8, !tbaa !100
  %5 = getelementptr inbounds nuw i8, ptr %0, i64 432
  %6 = load ptr, ptr %5, align 8, !tbaa !101
  tail call void @EVP_MD_CTX_free(ptr noundef %6) #8
  store ptr null, ptr %5, align 8, !tbaa !101
  ret void
}